; Function Attrs: mustprogress uwtable
define noundef i32 @_ZNK13MoleculePatch4typeEv(ptr noundef nonnull align 8 dereferenceable(256) %0) local_unnamed_addr #2 align 2 personality ptr @__gxx_personality_v0 {
  %2 = alloca %"class.gmx::InvalidInputError", align 8
  %3 = alloca %"class.gmx::ExceptionInitializer", align 8
  %4 = alloca %"class.gmx::ExceptionInfo", align 8
  %5 = getelementptr inbounds i8, ptr %0, i64 8
  %6 = tail call noundef zeroext i1 @_ZNKSt7__cxx1112basic_stringIcSt11char_traitsIcESaIcEE5emptyEv(ptr noundef nonnull align 8 dereferenceable(32) %5) #17
  br i1 %6, label %7, label %10

7:                                                ; preds = %1
  %8 = getelementptr inbounds i8, ptr %0, i64 40
  %9 = tail call noundef zeroext i1 @_ZNKSt7__cxx1112basic_stringIcSt11char_traitsIcESaIcEE5emptyEv(ptr noundef nonnull align 8 dereferenceable(32) %8) #17
  br i1 %9, label %10, label %31

10:                                               ; preds = %7, %1
  %11 = tail call noundef zeroext i1 @_ZNKSt7__cxx1112basic_stringIcSt11char_traitsIcESaIcEE5emptyEv(ptr noundef nonnull align 8 dereferenceable(32) %5) #17
  br i1 %11, label %15, label %12

12:                                               ; preds = %10
  %13 = getelementptr inbounds i8, ptr %0, i64 40
  %14 = tail call noundef zeroext i1 @_ZNKSt7__cxx1112basic_stringIcSt11char_traitsIcESaIcEE5emptyEv(ptr noundef nonnull align 8 dereferenceable(32) %13) #17
  br i1 %14, label %31, label %15

15:                                               ; preds = %12, %10
  %16 = tail call noundef zeroext i1 @_ZNKSt7__cxx1112basic_stringIcSt11char_traitsIcESaIcEE5emptyEv(ptr noundef nonnull align 8 dereferenceable(32) %5) #17
  br i1 %16, label %20, label %17

17:                                               ; preds = %15
  %18 = getelementptr inbounds i8, ptr %0, i64 40
  %19 = tail call noundef zeroext i1 @_ZNKSt7__cxx1112basic_stringIcSt11char_traitsIcESaIcEE5emptyEv(ptr noundef nonnull align 8 dereferenceable(32) %18) #17
  br i1 %19, label %20, label %31

20:                                               ; preds = %17, %15
  %21 = tail call ptr @__cxa_allocate_exception(i64 24) #17
  invoke void @_ZN3gmx20ExceptionInitializerC2EPKc(ptr noundef nonnull align 8 dereferenceable(56) %3, ptr noundef nonnull @.str.6)
          to label %22 unwind label %.thread

22:                                               ; preds = %20
  invoke void @_ZN3gmx16GromacsExceptionC2ERKNS_20ExceptionInitializerE(ptr noundef nonnull align 8 dereferenceable(24) %2, ptr noundef nonnull align 8 dereferenceable(56) %3)
          to label %23 unwind label %.thread15

23:                                               ; preds = %22
  store ptr getelementptr inbounds inrange(-16, 32) ({ [6 x ptr] }, ptr @_ZTVN3gmx17InvalidInputErrorE, i64 0, i32 0, i64 2), ptr %2, align 8
  store ptr getelementptr inbounds inrange(-16, 16) ({ [4 x ptr] }, ptr @_ZTVN3gmx13ExceptionInfoINS_22ExceptionInfoLocation_ENS_13ThrowLocationEEE, i64 0, i32 0, i64 2), ptr %4, align 8
  %24 = getelementptr inbounds i8, ptr %4, i64 8
  store ptr @__PRETTY_FUNCTION__._ZNK13MoleculePatch4typeEv, ptr %24, align 8
  %.sroa.2.0..sroa_idx = getelementptr inbounds i8, ptr %4, i64 16
  store ptr @.str.7, ptr %.sroa.2.0..sroa_idx, align 8
  %.sroa.3.0..sroa_idx = getelementptr inbounds i8, ptr %4, i64 24
  store i32 86, ptr %.sroa.3.0..sroa_idx, align 8
  invoke void @_ZN3gmxlsINS_17InvalidInputErrorENS_22ExceptionInfoLocation_ENS_13ThrowLocationEEENSt9enable_ifIXsr3std10is_base_ofINS_16GromacsExceptionET_EE5valueES6_E4typeES6_RKNS_13ExceptionInfoIT0_T1_EE(ptr dead_on_unwind writable sret(%"class.gmx::InvalidInputError") align 8 %21, ptr noundef nonnull %2, ptr noundef nonnull align 8 dereferenceable(32) %4)
          to label %25 unwind label %28

25:                                               ; preds = %23
  invoke void @__cxa_throw(ptr %21, ptr nonnull @_ZTIN3gmx17InvalidInputErrorE, ptr nonnull @_ZN3gmx17InvalidInputErrorD2Ev) #18
          to label %33 unwind label %28

.thread:                                          ; preds = %20
  %26 = landingpad { ptr, i32 }
          cleanup
  br label %30

.thread15:                                        ; preds = %22
  %27 = landingpad { ptr, i32 }
          cleanup
  call void @_ZN3gmx20ExceptionInitializerD2Ev(ptr noundef nonnull align 8 dereferenceable(56) %3) #17
  br label %30

28:                                               ; preds = %23, %25
  %.0 = phi i1 [ false, %25 ], [ true, %23 ]
  %29 = landingpad { ptr, i32 }
          cleanup
  call void @_ZN3gmx8internal14IExceptionInfoD2Ev(ptr noundef nonnull align 8 dereferenceable(8) %4) #17
  call void @_ZN3gmx17InvalidInputErrorD2Ev(ptr noundef nonnull align 8 dereferenceable(24) %2) #17
  call void @_ZN3gmx20ExceptionInitializerD2Ev(ptr noundef nonnull align 8 dereferenceable(56) %3) #17
  br i1 %.0, label %30, label %32

30:                                               ; preds = %.thread15, %.thread, %28
  %.pn.pn14 = phi { ptr, i32 } [ %26, %.thread ], [ %29, %28 ], [ %27, %.thread15 ]
  call void @__cxa_free_exception(ptr %21) #17
  br label %32

31:                                               ; preds = %17, %12, %7
  %.08 = phi i32 [ 0, %7 ], [ 1, %12 ], [ 2, %17 ]
  ret i32 %.08

32:                                               ; preds = %28, %30
  %.pn.pn13 = phi { ptr, i32 } [ %29, %28 ], [ %.pn.pn14, %30 ]
  resume { ptr, i32 } %.pn.pn13

33:                                               ; preds = %25
  unreachable
}